; Function Attrs: mustprogress uwtable
define internal { <2 x float>, <2 x float> } @_ZN32pxrInternal_v0_24__pxrReserved__12_GLOBAL__N_125_Vec4fFromVec3fDataSource13GetTypedValueEf(ptr nocapture noundef nonnull readonly align 8 dereferenceable(32) %0, float noundef %1) unnamed_addr #20 align 2 {
  %3 = getelementptr inbounds nuw i8, ptr %0, i64 8
  %4 = load ptr, ptr %3, align 8
  %5 = load ptr, ptr %4, align 8
  %6 = getelementptr inbounds i8, ptr %5, i64 32
  %7 = load ptr, ptr %6, align 8
  %8 = tail call { <2 x float>, float } %7(ptr noundef nonnull align 8 dereferenceable(8) %4, float noundef %1)
  %.fca.0.extract = extractvalue { <2 x float>, float } %8, 0
  %.fca.1.extract = extractvalue { <2 x float>, float } %8, 1
  %9 = getelementptr inbounds nuw i8, ptr %0, i64 24
  %10 = load float, ptr %9, align 8
  %.sroa.34.8.vec.insert = insertelement <2 x float> poison, float %.fca.1.extract, i64 0
  %.sroa.34.12.vec.insert = insertelement <2 x float> %.sroa.34.8.vec.insert, float %10, i64 1
  %.fca.0.insert = insertvalue { <2 x float>, <2 x float> } poison, <2 x float> %.fca.0.extract, 0
  %.fca.1.insert = insertvalue { <2 x float>, <2 x float> } %.fca.0.insert, <2 x float> %.sroa.34.12.vec.insert, 1
  ret { <2 x float>, <2 x float> } %.fca.1.insert
}